target datalayout = "e-m:e-p270:32:32-p271:32:32-p272:64:64-i64:64-i128:128-f80:128-n8:16:32:64-S128"
target triple = "x86_64-pc-linux-gnu"

%class.Thread = type { %class.ThreadShadow.base, i64, [43 x i64], ptr, ptr, i32, ptr, i64, i64, %class.ThreadLocalAllocBuffer, i64, %class.ThreadHeapSampler, %class.ThreadStatisticalInfo, %class.JfrThreadLocal, ptr, ptr, ptr, ptr, ptr, ptr, i64, i32, i32, ptr, i32, i32, i32, i32, i8, ptr }
%class.ThreadShadow.base = type <{ ptr, ptr, ptr, i32 }>
%class.ThreadLocalAllocBuffer = type <{ ptr, ptr, ptr, ptr, ptr, i64, i64, i64, i64, i32, i32, i32, i32, i64, %class.AdaptiveWeightedAverage, [4 x i8] }>
%class.AdaptiveWeightedAverage = type { float, i32, i32, i8, float }
%class.ThreadHeapSampler = type { i64 }
%class.ThreadStatisticalInfo = type { i64, i64 }
%class.JfrThreadLocal = type <{ ptr, ptr, ptr, ptr, ptr, ptr, ptr, ptr, ptr, ptr, %class.RefCountHandle, i64, i64, i64, i64, i64, i64, i64, i64, i64, i64, i64, i32, i32, i32, i16, i8, i8, i8, i8, i8, [5 x i8] }>
%class.RefCountHandle = type { ptr }
%class.JfrThreadSampler = type <{ %class.NonJavaThread, %class.Semaphore, ptr, ptr, ptr, ptr, i64, i64, i64, i32, i32, i8, [7 x i8] }>
%class.NonJavaThread = type { %class.Thread, ptr }
%class.Semaphore = type { %class.PosixSemaphore }
%class.PosixSemaphore = type { %union.sem_t }
%union.sem_t = type { i64, [24 x i8] }

; Function Attrs: mustprogress nounwind uwtable
define linkonce_odr hidden void @_ZN9SemaphoreD2Ev(ptr noundef nonnull align 8 dereferenceable(32) %0) unnamed_addr #1 comdat align 2 {
  %2 = alloca ptr, align 8
  store ptr %0, ptr %2, align 8
  %3 = load ptr, ptr %2, align 8
  %4 = getelementptr inbounds %class.Semaphore, ptr %3, i32 0, i32 0
  call void @_ZN14PosixSemaphoreD1Ev(ptr noundef nonnull align 8 dereferenceable(32) %4) #7
  ret void
}

; Function Attrs: mustprogress nounwind uwtable
define hidden void @_ZN16JfrThreadSamplerD2Ev(ptr noundef nonnull align 8 dereferenceable(993) %0) unnamed_addr #1 align 2 {
  %2 = alloca ptr, align 8
  store ptr %0, ptr %2, align 8
  %3 = load ptr, ptr %2, align 8
  store ptr getelementptr inbounds inrange(-16, 216) ({ [29 x ptr] }, ptr @_ZTV16JfrThreadSampler, i32 0, i32 0, i32 2), ptr %3, align 8
  %4 = getelementptr inbounds %class.JfrThreadSampler, ptr %3, i32 0, i32 3
  %5 = load ptr, ptr %4, align 8
  %6 = getelementptr inbounds %class.JfrThreadSampler, ptr %3, i32 0, i32 10
  %7 = load i32, ptr %6, align 4
  %8 = zext i32 %7 to i64
  %9 = mul i64 32, %8
  call void @_ZN11JfrCHeapObj4freeEPvm(ptr noundef %5, i64 noundef %9)
  %10 = getelementptr inbounds %class.JfrThreadSampler, ptr %3, i32 0, i32 1
  call void @_ZN9SemaphoreD2Ev(ptr noundef nonnull align 8 dereferenceable(32) %10) #7
  call void @_ZN13NonJavaThreadD2Ev(ptr noundef nonnull align 8 dereferenceable(896) %3) #7
  ret void
}