; Function Attrs: mustprogress nounwind uwtable
define hidden void @_ZN16JfrThreadSamplerD2Ev(ptr noundef nonnull align 8 dereferenceable(993) %0) unnamed_addr #0 align 2 {
  store ptr getelementptr inbounds inrange(-16, 216) (i8, ptr @_ZTV16JfrThreadSampler, i64 16), ptr %0, align 8
  %2 = getelementptr inbounds i8, ptr %0, i64 936
  %3 = load ptr, ptr %2, align 8
  %4 = getelementptr inbounds i8, ptr %0, i64 988
  %5 = load i32, ptr %4, align 4
  %6 = zext i32 %5 to i64
  %7 = shl nuw nsw i64 %6, 5
  tail call void @_ZN11JfrCHeapObj4freeEPvm(ptr noundef %3, i64 noundef %7) #18
  %8 = getelementptr inbounds i8, ptr %0, i64 896
  tail call void @_ZN14PosixSemaphoreD1Ev(ptr noundef nonnull align 8 dereferenceable(32) %8) #18
  tail call void @_ZN13NonJavaThreadD2Ev(ptr noundef nonnull align 8 dereferenceable(896) %0) #18
  ret void
}